; Function Attrs: mustprogress uwtable
define hidden void @_ZN4lean12to_uint_typeEj(ptr dead_on_unwind noalias writable writeonly sret(%"class.lean::optional.0") align 8 captures(none) initializes((0, 1)) %0, i32 noundef %1) local_unnamed_addr #0 {
  switch i32 %1, label %63 [
    i32 0, label %3
    i32 1, label %15
    i32 2, label %27
    i32 4, label %39
    i32 8, label %51
  ]

3:                                                ; preds = %2
  %4 = load ptr, ptr @_ZN4leanL7g_usizeE, align 8, !tbaa !19
  tail call void @llvm.experimental.noalias.scope.decl(metadata !21)
  store i8 1, ptr %0, align 8, !tbaa !24, !alias.scope !21
  %5 = getelementptr inbounds nuw i8, ptr %0, i64 8
  %6 = load ptr, ptr %4, align 8, !tbaa !3, !noalias !21
  store ptr %6, ptr %5, align 8, !tbaa !3, !alias.scope !21
  %7 = ptrtoint ptr %6 to i64
  %8 = and i64 %7, 1
  %.not.i.i.i.i.i = icmp eq i64 %8, 0
  br i1 %.not.i.i.i.i.i, label %9, label %_ZN4lean9some_exprERKNS_4exprE.exit

9:                                                ; preds = %3
  %.val.i.i.i.i.i.i = load i32, ptr %6, align 4, !tbaa !13, !noalias !21
  %10 = icmp sgt i32 %.val.i.i.i.i.i.i, 0
  br i1 %10, label %11, label %13, !prof !15

11:                                               ; preds = %9
  %12 = add nuw nsw i32 %.val.i.i.i.i.i.i, 1
  store i32 %12, ptr %6, align 4, !tbaa !13, !noalias !21
  br label %_ZN4lean9some_exprERKNS_4exprE.exit

13:                                               ; preds = %9
  %.not.i.i.i.i.i.i = icmp eq i32 %.val.i.i.i.i.i.i, 0
  br i1 %.not.i.i.i.i.i.i, label %_ZN4lean9some_exprERKNS_4exprE.exit, label %14

14:                                               ; preds = %13
  tail call void @lean_inc_ref_cold(ptr noundef nonnull %6), !noalias !21
  br label %_ZN4lean9some_exprERKNS_4exprE.exit

15:                                               ; preds = %2
  %16 = load ptr, ptr @_ZN4leanL7g_uint8E, align 8, !tbaa !19
  tail call void @llvm.experimental.noalias.scope.decl(metadata !26)
  store i8 1, ptr %0, align 8, !tbaa !24, !alias.scope !26
  %17 = getelementptr inbounds nuw i8, ptr %0, i64 8
  %18 = load ptr, ptr %16, align 8, !tbaa !3, !noalias !26
  store ptr %18, ptr %17, align 8, !tbaa !3, !alias.scope !26
  %19 = ptrtoint ptr %18 to i64
  %20 = and i64 %19, 1
  %.not.i.i.i.i.i1 = icmp eq i64 %20, 0
  br i1 %.not.i.i.i.i.i1, label %21, label %_ZN4lean9some_exprERKNS_4exprE.exit

21:                                               ; preds = %15
  %.val.i.i.i.i.i.i2 = load i32, ptr %18, align 4, !tbaa !13, !noalias !26
  %22 = icmp sgt i32 %.val.i.i.i.i.i.i2, 0
  br i1 %22, label %23, label %25, !prof !15

23:                                               ; preds = %21
  %24 = add nuw nsw i32 %.val.i.i.i.i.i.i2, 1
  store i32 %24, ptr %18, align 4, !tbaa !13, !noalias !26
  br label %_ZN4lean9some_exprERKNS_4exprE.exit

25:                                               ; preds = %21
  %.not.i.i.i.i.i.i3 = icmp eq i32 %.val.i.i.i.i.i.i2, 0
  br i1 %.not.i.i.i.i.i.i3, label %_ZN4lean9some_exprERKNS_4exprE.exit, label %26

26:                                               ; preds = %25
  tail call void @lean_inc_ref_cold(ptr noundef nonnull %18), !noalias !26
  br label %_ZN4lean9some_exprERKNS_4exprE.exit

27:                                               ; preds = %2
  %28 = load ptr, ptr @_ZN4leanL8g_uint16E, align 8, !tbaa !19
  tail call void @llvm.experimental.noalias.scope.decl(metadata !29)
  store i8 1, ptr %0, align 8, !tbaa !24, !alias.scope !29
  %29 = getelementptr inbounds nuw i8, ptr %0, i64 8
  %30 = load ptr, ptr %28, align 8, !tbaa !3, !noalias !29
  store ptr %30, ptr %29, align 8, !tbaa !3, !alias.scope !29
  %31 = ptrtoint ptr %30 to i64
  %32 = and i64 %31, 1
  %.not.i.i.i.i.i5 = icmp eq i64 %32, 0
  br i1 %.not.i.i.i.i.i5, label %33, label %_ZN4lean9some_exprERKNS_4exprE.exit

33:                                               ; preds = %27
  %.val.i.i.i.i.i.i6 = load i32, ptr %30, align 4, !tbaa !13, !noalias !29
  %34 = icmp sgt i32 %.val.i.i.i.i.i.i6, 0
  br i1 %34, label %35, label %37, !prof !15

35:                                               ; preds = %33
  %36 = add nuw nsw i32 %.val.i.i.i.i.i.i6, 1
  store i32 %36, ptr %30, align 4, !tbaa !13, !noalias !29
  br label %_ZN4lean9some_exprERKNS_4exprE.exit

37:                                               ; preds = %33
  %.not.i.i.i.i.i.i7 = icmp eq i32 %.val.i.i.i.i.i.i6, 0
  br i1 %.not.i.i.i.i.i.i7, label %_ZN4lean9some_exprERKNS_4exprE.exit, label %38

38:                                               ; preds = %37
  tail call void @lean_inc_ref_cold(ptr noundef nonnull %30), !noalias !29
  br label %_ZN4lean9some_exprERKNS_4exprE.exit

39:                                               ; preds = %2
  %40 = load ptr, ptr @_ZN4leanL8g_uint32E, align 8, !tbaa !19
  tail call void @llvm.experimental.noalias.scope.decl(metadata !32)
  store i8 1, ptr %0, align 8, !tbaa !24, !alias.scope !32
  %41 = getelementptr inbounds nuw i8, ptr %0, i64 8
  %42 = load ptr, ptr %40, align 8, !tbaa !3, !noalias !32
  store ptr %42, ptr %41, align 8, !tbaa !3, !alias.scope !32
  %43 = ptrtoint ptr %42 to i64
  %44 = and i64 %43, 1
  %.not.i.i.i.i.i9 = icmp eq i64 %44, 0
  br i1 %.not.i.i.i.i.i9, label %45, label %_ZN4lean9some_exprERKNS_4exprE.exit

45:                                               ; preds = %39
  %.val.i.i.i.i.i.i10 = load i32, ptr %42, align 4, !tbaa !13, !noalias !32
  %46 = icmp sgt i32 %.val.i.i.i.i.i.i10, 0
  br i1 %46, label %47, label %49, !prof !15

47:                                               ; preds = %45
  %48 = add nuw nsw i32 %.val.i.i.i.i.i.i10, 1
  store i32 %48, ptr %42, align 4, !tbaa !13, !noalias !32
  br label %_ZN4lean9some_exprERKNS_4exprE.exit

49:                                               ; preds = %45
  %.not.i.i.i.i.i.i11 = icmp eq i32 %.val.i.i.i.i.i.i10, 0
  br i1 %.not.i.i.i.i.i.i11, label %_ZN4lean9some_exprERKNS_4exprE.exit, label %50

50:                                               ; preds = %49
  tail call void @lean_inc_ref_cold(ptr noundef nonnull %42), !noalias !32
  br label %_ZN4lean9some_exprERKNS_4exprE.exit

51:                                               ; preds = %2
  %52 = load ptr, ptr @_ZN4leanL8g_uint64E, align 8, !tbaa !19
  tail call void @llvm.experimental.noalias.scope.decl(metadata !35)
  store i8 1, ptr %0, align 8, !tbaa !24, !alias.scope !35
  %53 = getelementptr inbounds nuw i8, ptr %0, i64 8
  %54 = load ptr, ptr %52, align 8, !tbaa !3, !noalias !35
  store ptr %54, ptr %53, align 8, !tbaa !3, !alias.scope !35
  %55 = ptrtoint ptr %54 to i64
  %56 = and i64 %55, 1
  %.not.i.i.i.i.i13 = icmp eq i64 %56, 0
  br i1 %.not.i.i.i.i.i13, label %57, label %_ZN4lean9some_exprERKNS_4exprE.exit

57:                                               ; preds = %51
  %.val.i.i.i.i.i.i14 = load i32, ptr %54, align 4, !tbaa !13, !noalias !35
  %58 = icmp sgt i32 %.val.i.i.i.i.i.i14, 0
  br i1 %58, label %59, label %61, !prof !15

59:                                               ; preds = %57
  %60 = add nuw nsw i32 %.val.i.i.i.i.i.i14, 1
  store i32 %60, ptr %54, align 4, !tbaa !13, !noalias !35
  br label %_ZN4lean9some_exprERKNS_4exprE.exit

61:                                               ; preds = %57
  %.not.i.i.i.i.i.i15 = icmp eq i32 %.val.i.i.i.i.i.i14, 0
  br i1 %.not.i.i.i.i.i.i15, label %_ZN4lean9some_exprERKNS_4exprE.exit, label %62

62:                                               ; preds = %61
  tail call void @lean_inc_ref_cold(ptr noundef nonnull %54), !noalias !35
  br label %_ZN4lean9some_exprERKNS_4exprE.exit

63:                                               ; preds = %2
  store i8 0, ptr %0, align 8, !tbaa !24, !alias.scope !38
  br label %_ZN4lean9some_exprERKNS_4exprE.exit

_ZN4lean9some_exprERKNS_4exprE.exit:              ; preds = %62, %61, %59, %51, %50, %49, %47, %39, %38, %37, %35, %27, %26, %25, %23, %15, %14, %13, %11, %3, %63
  ret void
}